; Function Attrs: nounwind uwtable
define internal fastcc void @_decrement_message_connections() unnamed_addr #0 {
  %1 = tail call i32 @pthread_mutex_lock(ptr noundef nonnull @message_lock) #13
  %.not = icmp eq i32 %1, 0
  br i1 %.not, label %4, label %2

2:                                                ; preds = %0
  %3 = tail call ptr @__errno_location() #14
  store i32 %1, ptr %3, align 4
  tail call void (ptr, ...) @fatal_abort(ptr noundef nonnull @.str.22, ptr noundef nonnull @__func__._decrement_message_connections) #15
  unreachable

4:                                                ; preds = %0
  %5 = load i32, ptr @message_connections, align 4
  %6 = add nsw i32 %5, -1
  store i32 %6, ptr @message_connections, align 4
  %7 = tail call i32 @pthread_cond_signal(ptr noundef nonnull @message_cond) #13
  %.not8 = icmp eq i32 %7, 0
  br i1 %.not8, label %11, label %8

8:                                                ; preds = %4
  %9 = tail call ptr @__errno_location() #14
  store i32 %7, ptr %9, align 4
  %10 = tail call i32 (ptr, ...) @error(ptr noundef nonnull @.str.119, ptr noundef nonnull @.str.26, i32 noundef 352, ptr noundef nonnull @__func__._decrement_message_connections) #13
  br label %11

11:                                               ; preds = %8, %4
  %12 = tail call i32 @pthread_mutex_unlock(ptr noundef nonnull @message_lock) #13
  %.not9 = icmp eq i32 %12, 0
  br i1 %.not9, label %15, label %13

13:                                               ; preds = %11
  %14 = tail call ptr @__errno_location() #14
  store i32 %12, ptr %14, align 4
  tail call void (ptr, ...) @fatal_abort(ptr noundef nonnull @.str.23, ptr noundef nonnull @__func__._decrement_message_connections) #15
  unreachable

15:                                               ; preds = %11
  ret void
}